target datalayout = "e-m:e-p270:32:32-p271:32:32-p272:64:64-i64:64-i128:128-f80:128-n8:16:32:64-S128"
target triple = "x86_64-pc-linux-gnu"

%class.RefCountHandle = type { ptr }
%class.RefCountPointer = type { ptr, %class.MultiThreadedRefCounter }
%class.MultiThreadedRefCounter = type { i64 }

; Function Attrs: mustprogress nounwind uwtable
define linkonce_odr hidden noundef ptr @_ZNK15RefCountPointerI7JfrBlob23MultiThreadedRefCounterEptEv(ptr noundef nonnull align 8 dereferenceable(16) %0) #1 comdat align 2 {
  %2 = alloca ptr, align 8
  store ptr %0, ptr %2, align 8
  %3 = load ptr, ptr %2, align 8
  %4 = getelementptr inbounds %class.RefCountPointer, ptr %3, i32 0, i32 0
  %5 = load ptr, ptr %4, align 8
  ret ptr %5
}

; Function Attrs: mustprogress nounwind uwtable
define linkonce_odr hidden noundef nonnull align 8 dereferenceable(16) ptr @_ZNK14RefCountHandleI15RefCountPointerI7JfrBlob23MultiThreadedRefCounterEEptEv(ptr noundef nonnull align 8 dereferenceable(8) %0) #1 comdat align 2 {
  %2 = alloca ptr, align 8
  store ptr %0, ptr %2, align 8
  %3 = load ptr, ptr %2, align 8
  %4 = getelementptr inbounds %class.RefCountHandle, ptr %3, i32 0, i32 0
  %5 = load ptr, ptr %4, align 8
  ret ptr %5
}

; Function Attrs: mustprogress nounwind uwtable
define hidden noundef zeroext i1 @_ZN23JfrDeprecatedEventClear7processEPK17JfrDeprecatedEdge(ptr noundef nonnull align 1 dereferenceable(1) %0, ptr noundef %1) #1 align 2 {
  %3 = alloca i1, align 1
  %4 = alloca ptr, align 8
  %5 = alloca ptr, align 8
  store ptr %0, ptr %4, align 8
  store ptr %1, ptr %5, align 8
  %6 = load ptr, ptr %5, align 8
  %7 = call noundef zeroext i1 @_ZNK17JfrDeprecatedEdge12has_type_setEv(ptr noundef nonnull align 8 dereferenceable(82) %6)
  br i1 %7, label %9, label %8

8:                                                ; preds = %2
  store i1 true, ptr %3, align 1
  br label %14

9:                                                ; preds = %2
  %10 = load ptr, ptr %5, align 8
  %11 = call noundef nonnull align 8 dereferenceable(8) ptr @_ZNK17JfrDeprecatedEdge8type_setEv(ptr noundef nonnull align 8 dereferenceable(82) %10)
  %12 = call noundef nonnull align 8 dereferenceable(16) ptr @_ZNK14RefCountHandleI15RefCountPointerI7JfrBlob23MultiThreadedRefCounterEEptEv(ptr noundef nonnull align 8 dereferenceable(8) %11)
  %13 = call noundef ptr @_ZNK15RefCountPointerI7JfrBlob23MultiThreadedRefCounterEptEv(ptr noundef nonnull align 8 dereferenceable(16) %12)
  call void @_ZNK7JfrBlob17reset_write_stateEv(ptr noundef nonnull align 8 dereferenceable(25) %13)
  store i1 true, ptr %3, align 1
  br label %14

14:                                               ; preds = %9, %8
  %15 = load i1, ptr %3, align 1
  ret i1 %15
}