; Function Attrs: mustprogress nounwind uwtable
define hidden noundef zeroext i1 @_ZN23JfrDeprecatedEventClear7processEPK17JfrDeprecatedEdge(ptr nocapture noundef nonnull readnone align 1 dereferenceable(1) %0, ptr noundef nonnull %1) local_unnamed_addr #2 align 2 {
  %3 = tail call noundef zeroext i1 @_ZNK17JfrDeprecatedEdge12has_type_setEv(ptr noundef nonnull align 8 dereferenceable(82) %1) #14
  br i1 %3, label %4, label %8

4:                                                ; preds = %2
  %5 = tail call noundef nonnull align 8 dereferenceable(8) ptr @_ZNK17JfrDeprecatedEdge8type_setEv(ptr noundef nonnull align 8 dereferenceable(82) %1) #14
  %6 = load ptr, ptr %5, align 8
  %7 = load ptr, ptr %6, align 8
  tail call void @_ZNK7JfrBlob17reset_write_stateEv(ptr noundef nonnull align 8 dereferenceable(25) %7) #14
  br label %8

8:                                                ; preds = %2, %4
  ret i1 true
}